target datalayout = "e-m:e-p270:32:32-p271:32:32-p272:64:64-i64:64-i128:128-f80:128-n8:16:32:64-S128"
target triple = "x86_64-pc-linux-gnu"

%class.ClassListParser = type { ptr, %class.ResizeableResourceHashtable, %class.FileInput, %class.inputStream, ptr, i32, ptr, ptr, i32, i32, ptr, i8, ptr, i32, ptr }
%class.ResizeableResourceHashtable = type { %class.ResourceHashtableBase.base, i32 }
%class.ResourceHashtableBase.base = type <{ %class.ResizeableResourceHashtableStorage, i32 }>
%class.ResizeableResourceHashtableStorage = type { i32, ptr }
%class.FileInput = type { %"class.inputStream::Input", ptr, %class.fileStream }
%"class.inputStream::Input" = type { ptr }
%class.fileStream = type <{ %class.outputStream, ptr, i8, [7 x i8] }>
%class.outputStream = type { ptr, i32, i8, i32, i64, %class.TimeStamp, ptr, i64 }
%class.TimeStamp = type { i64 }
%class.inputStream = type { ptr, ptr, i32, i8, ptr, i64, i64, i64, i64, i64, i64, [240 x i8] }

; Function Attrs: mustprogress nounwind uwtable
define hidden void @_ZN15ClassListParser19clean_up_input_lineEv(ptr noundef nonnull align 8 dereferenceable(520) %0) #1 align 2 {
  %2 = alloca ptr, align 8
  %3 = alloca i32, align 4
  %4 = alloca i32, align 4
  store ptr %0, ptr %2, align 8
  %5 = load ptr, ptr %2, align 8
  %6 = getelementptr inbounds %class.ClassListParser, ptr %5, i32 0, i32 4
  %7 = load ptr, ptr %6, align 8
  %8 = call i64 @strlen(ptr noundef %7) #12
  %9 = trunc i64 %8 to i32
  store i32 %9, ptr %3, align 4
  store i32 0, ptr %4, align 4
  br label %10

10:                                               ; preds = %57, %1
  %11 = load i32, ptr %4, align 4
  %12 = load i32, ptr %3, align 4
  %13 = icmp slt i32 %11, %12
  br i1 %13, label %14, label %60

14:                                               ; preds = %10
  %15 = getelementptr inbounds %class.ClassListParser, ptr %5, i32 0, i32 4
  %16 = load ptr, ptr %15, align 8
  %17 = load i32, ptr %4, align 4
  %18 = sext i32 %17 to i64
  %19 = getelementptr inbounds i8, ptr %16, i64 %18
  %20 = load i8, ptr %19, align 1
  %21 = sext i8 %20 to i32
  %22 = icmp eq i32 %21, 9
  br i1 %22, label %50, label %23

23:                                               ; preds = %14
  %24 = getelementptr inbounds %class.ClassListParser, ptr %5, i32 0, i32 4
  %25 = load ptr, ptr %24, align 8
  %26 = load i32, ptr %4, align 4
  %27 = sext i32 %26 to i64
  %28 = getelementptr inbounds i8, ptr %25, i64 %27
  %29 = load i8, ptr %28, align 1
  %30 = sext i8 %29 to i32
  %31 = icmp eq i32 %30, 13
  br i1 %31, label %50, label %32

32:                                               ; preds = %23
  %33 = getelementptr inbounds %class.ClassListParser, ptr %5, i32 0, i32 4
  %34 = load ptr, ptr %33, align 8
  %35 = load i32, ptr %4, align 4
  %36 = sext i32 %35 to i64
  %37 = getelementptr inbounds i8, ptr %34, i64 %36
  %38 = load i8, ptr %37, align 1
  %39 = sext i8 %38 to i32
  %40 = icmp eq i32 %39, 10
  br i1 %40, label %50, label %41

41:                                               ; preds = %32
  %42 = getelementptr inbounds %class.ClassListParser, ptr %5, i32 0, i32 4
  %43 = load ptr, ptr %42, align 8
  %44 = load i32, ptr %4, align 4
  %45 = sext i32 %44 to i64
  %46 = getelementptr inbounds i8, ptr %43, i64 %45
  %47 = load i8, ptr %46, align 1
  %48 = sext i8 %47 to i32
  %49 = icmp eq i32 %48, 12
  br i1 %49, label %50, label %56

50:                                               ; preds = %41, %32, %23, %14
  %51 = getelementptr inbounds %class.ClassListParser, ptr %5, i32 0, i32 4
  %52 = load ptr, ptr %51, align 8
  %53 = load i32, ptr %4, align 4
  %54 = sext i32 %53 to i64
  %55 = getelementptr inbounds i8, ptr %52, i64 %54
  store i8 32, ptr %55, align 1
  br label %56

56:                                               ; preds = %50, %41
  br label %57

57:                                               ; preds = %56
  %58 = load i32, ptr %4, align 4
  %59 = add nsw i32 %58, 1
  store i32 %59, ptr %4, align 4
  br label %10, !llvm.loop !8

60:                                               ; preds = %10
  br label %61

61:                                               ; preds = %84, %60
  %62 = load i32, ptr %3, align 4
  %63 = icmp sgt i32 %62, 0
  br i1 %63, label %64, label %85

64:                                               ; preds = %61
  %65 = getelementptr inbounds %class.ClassListParser, ptr %5, i32 0, i32 4
  %66 = load ptr, ptr %65, align 8
  %67 = load i32, ptr %3, align 4
  %68 = sub nsw i32 %67, 1
  %69 = sext i32 %68 to i64
  %70 = getelementptr inbounds i8, ptr %66, i64 %69
  %71 = load i8, ptr %70, align 1
  %72 = sext i8 %71 to i32
  %73 = icmp eq i32 %72, 32
  br i1 %73, label %74, label %83

74:                                               ; preds = %64
  %75 = getelementptr inbounds %class.ClassListParser, ptr %5, i32 0, i32 4
  %76 = load ptr, ptr %75, align 8
  %77 = load i32, ptr %3, align 4
  %78 = sub nsw i32 %77, 1
  %79 = sext i32 %78 to i64
  %80 = getelementptr inbounds i8, ptr %76, i64 %79
  store i8 0, ptr %80, align 1
  %81 = load i32, ptr %3, align 4
  %82 = add nsw i32 %81, -1
  store i32 %82, ptr %3, align 4
  br label %84

83:                                               ; preds = %64
  br label %85

84:                                               ; preds = %74
  br label %61, !llvm.loop !9

85:                                               ; preds = %83, %61
  %86 = load i32, ptr %3, align 4
  %87 = getelementptr inbounds %class.ClassListParser, ptr %5, i32 0, i32 5
  store i32 %86, ptr %87, align 8
  ret void
}