; Function Attrs: mustprogress nofree nounwind memory(readwrite, inaccessiblemem: none) uwtable
define hidden void @_ZN15ClassListParser19clean_up_input_lineEv(ptr nocapture noundef nonnull align 8 dereferenceable(520) %0) local_unnamed_addr #4 align 2 {
  %2 = getelementptr inbounds i8, ptr %0, i64 440
  %3 = load ptr, ptr %2, align 8
  %4 = tail call i64 @strlen(ptr noundef nonnull dereferenceable(1) %3) #20
  %5 = trunc i64 %4 to i32
  %6 = icmp sgt i32 %5, 0
  br i1 %6, label %.lr.ph.preheader, label %._crit_edge

.lr.ph.preheader:                                 ; preds = %1
  %wide.trip.count = and i64 %4, 2147483647
  br label %.lr.ph

.preheader:                                       ; preds = %11
  br i1 %6, label %.lr.ph18, label %._crit_edge

.lr.ph:                                           ; preds = %.lr.ph.preheader, %11
  %indvars.iv = phi i64 [ 0, %.lr.ph.preheader ], [ %indvars.iv.next, %11 ]
  %7 = load ptr, ptr %2, align 8
  %8 = getelementptr inbounds i8, ptr %7, i64 %indvars.iv
  %9 = load i8, ptr %8, align 1
  switch i8 %9, label %11 [
    i8 9, label %10
    i8 13, label %10
    i8 10, label %10
    i8 12, label %10
  ]

10:                                               ; preds = %.lr.ph, %.lr.ph, %.lr.ph, %.lr.ph
  store i8 32, ptr %8, align 1
  br label %11

11:                                               ; preds = %.lr.ph, %10
  %indvars.iv.next = add nuw nsw i64 %indvars.iv, 1
  %exitcond.not = icmp eq i64 %indvars.iv.next, %wide.trip.count
  br i1 %exitcond.not, label %.preheader, label %.lr.ph, !llvm.loop !9

.lr.ph18:                                         ; preds = %.preheader, %18
  %.01317 = phi i32 [ %19, %18 ], [ %5, %.preheader ]
  %12 = load ptr, ptr %2, align 8
  %13 = zext nneg i32 %.01317 to i64
  %14 = getelementptr i8, ptr %12, i64 %13
  %15 = getelementptr i8, ptr %14, i64 -1
  %16 = load i8, ptr %15, align 1
  %17 = icmp eq i8 %16, 32
  br i1 %17, label %18, label %._crit_edge

18:                                               ; preds = %.lr.ph18
  store i8 0, ptr %15, align 1
  %19 = add nsw i32 %.01317, -1
  %20 = icmp sgt i32 %.01317, 1
  br i1 %20, label %.lr.ph18, label %._crit_edge, !llvm.loop !10

._crit_edge:                                      ; preds = %18, %.lr.ph18, %1, %.preheader
  %.013.lcssa = phi i32 [ %5, %.preheader ], [ %5, %1 ], [ %.01317, %.lr.ph18 ], [ 0, %18 ]
  %21 = getelementptr inbounds i8, ptr %0, i64 448
  store i32 %.013.lcssa, ptr %21, align 8
  ret void
}